target datalayout = "e-m:e-p270:32:32-p271:32:32-p272:64:64-i64:64-i128:128-f80:128-n8:16:32:64-S128"
target triple = "x86_64-pc-linux-gnu"

%struct.wmap_compact_table_data = type { ptr, ptr }
%struct.weakmap_entry = type { i64, i64 }

; Function Attrs: inlinehint nounwind sspstrong uwtable
define internal void @ruby_sized_xfree_inlined(ptr noundef %0, i64 noundef %1) #3 {
  %3 = alloca ptr, align 8
  %4 = alloca i64, align 8
  store ptr %0, ptr %3, align 8, !tbaa !33
  store i64 %1, ptr %4, align 8, !tbaa !7
  %5 = load ptr, ptr %3, align 8, !tbaa !33
  call void @ruby_xfree(ptr noundef %5)
  ret void
}

; Function Attrs: nounwind sspstrong uwtable
define internal i32 @wmap_compact_table_i(i64 noundef %0, i64 noundef %1, i64 noundef %2) #0 {
  %4 = alloca i32, align 4
  %5 = alloca i64, align 8
  %6 = alloca i64, align 8
  %7 = alloca i64, align 8
  %8 = alloca ptr, align 8
  %9 = alloca ptr, align 8
  %10 = alloca i64, align 8
  %11 = alloca i64, align 8
  %12 = alloca ptr, align 8
  %13 = alloca i32, align 4
  store i64 %0, ptr %5, align 8, !tbaa !7
  store i64 %1, ptr %6, align 8, !tbaa !7
  store i64 %2, ptr %7, align 8, !tbaa !7
  call void @llvm.lifetime.start.p0(i64 8, ptr %8) #15
  %14 = load i64, ptr %7, align 8, !tbaa !7
  %15 = inttoptr i64 %14 to ptr
  store ptr %15, ptr %8, align 8, !tbaa !52
  %16 = load ptr, ptr %8, align 8, !tbaa !52
  %17 = getelementptr inbounds nuw %struct.wmap_compact_table_data, ptr %16, i32 0, i32 1
  %18 = load ptr, ptr %17, align 8, !tbaa !36
  %19 = icmp ne ptr %18, null
  br i1 %19, label %20, label %26

20:                                               ; preds = %3
  %21 = load ptr, ptr %8, align 8, !tbaa !52
  %22 = getelementptr inbounds nuw %struct.wmap_compact_table_data, ptr %21, i32 0, i32 1
  %23 = load ptr, ptr %22, align 8, !tbaa !36
  call void @ruby_sized_xfree_inlined(ptr noundef %23, i64 noundef 16)
  %24 = load ptr, ptr %8, align 8, !tbaa !52
  %25 = getelementptr inbounds nuw %struct.wmap_compact_table_data, ptr %24, i32 0, i32 1
  store ptr null, ptr %25, align 8, !tbaa !36
  br label %26

26:                                               ; preds = %20, %3
  call void @llvm.lifetime.start.p0(i64 8, ptr %9) #15
  %27 = load i64, ptr %5, align 8, !tbaa !7
  %28 = inttoptr i64 %27 to ptr
  store ptr %28, ptr %9, align 8, !tbaa !17
  %29 = load ptr, ptr %9, align 8, !tbaa !17
  %30 = getelementptr inbounds nuw %struct.weakmap_entry, ptr %29, i32 0, i32 1
  %31 = load i64, ptr %30, align 8, !tbaa !45
  %32 = call i64 @rb_gc_location(i64 noundef %31)
  %33 = load ptr, ptr %9, align 8, !tbaa !17
  %34 = getelementptr inbounds nuw %struct.weakmap_entry, ptr %33, i32 0, i32 1
  store i64 %32, ptr %34, align 8, !tbaa !45
  call void @llvm.lifetime.start.p0(i64 8, ptr %10) #15
  %35 = load ptr, ptr %9, align 8, !tbaa !17
  %36 = getelementptr inbounds nuw %struct.weakmap_entry, ptr %35, i32 0, i32 0
  %37 = load i64, ptr %36, align 8, !tbaa !43
  %38 = call i64 @rb_gc_location(i64 noundef %37)
  store i64 %38, ptr %10, align 8, !tbaa !7
  %39 = load ptr, ptr %9, align 8, !tbaa !17
  %40 = getelementptr inbounds nuw %struct.weakmap_entry, ptr %39, i32 0, i32 0
  %41 = load i64, ptr %40, align 8, !tbaa !43
  %42 = load i64, ptr %10, align 8, !tbaa !7
  %43 = icmp ne i64 %41, %42
  br i1 %43, label %44, label %73

44:                                               ; preds = %26
  call void @llvm.lifetime.start.p0(i64 8, ptr %11) #15
  %45 = call i64 @rb_gc_disable_no_rest()
  store i64 %45, ptr %11, align 8, !tbaa !7
  call void @llvm.lifetime.start.p0(i64 8, ptr %12) #15
  %46 = call noalias nonnull ptr @ruby_xmalloc(i64 noundef 16) #19
  store ptr %46, ptr %12, align 8, !tbaa !17
  %47 = load i64, ptr %10, align 8, !tbaa !7
  %48 = load ptr, ptr %12, align 8, !tbaa !17
  %49 = getelementptr inbounds nuw %struct.weakmap_entry, ptr %48, i32 0, i32 0
  store i64 %47, ptr %49, align 8, !tbaa !43
  %50 = load ptr, ptr %9, align 8, !tbaa !17
  %51 = getelementptr inbounds nuw %struct.weakmap_entry, ptr %50, i32 0, i32 1
  %52 = load i64, ptr %51, align 8, !tbaa !45
  %53 = load ptr, ptr %12, align 8, !tbaa !17
  %54 = getelementptr inbounds nuw %struct.weakmap_entry, ptr %53, i32 0, i32 1
  store i64 %52, ptr %54, align 8, !tbaa !45
  %55 = load ptr, ptr %8, align 8, !tbaa !52
  %56 = getelementptr inbounds nuw %struct.wmap_compact_table_data, ptr %55, i32 0, i32 0
  %57 = load ptr, ptr %56, align 8, !tbaa !34
  %58 = load ptr, ptr %12, align 8, !tbaa !17
  %59 = getelementptr inbounds nuw %struct.weakmap_entry, ptr %58, i32 0, i32 0
  %60 = ptrtoint ptr %59 to i64
  %61 = load ptr, ptr %12, align 8, !tbaa !17
  %62 = getelementptr inbounds nuw %struct.weakmap_entry, ptr %61, i32 0, i32 1
  %63 = ptrtoint ptr %62 to i64
  %64 = call i32 @rb_st_insert(ptr noundef %57, i64 noundef %60, i64 noundef %63)
  call void @llvm.lifetime.end.p0(i64 8, ptr %12) #15
  %65 = load i64, ptr %11, align 8, !tbaa !7
  %66 = icmp eq i64 %65, 0
  br i1 %66, label %67, label %69

67:                                               ; preds = %44
  %68 = call i64 @rb_gc_enable()
  br label %69

69:                                               ; preds = %67, %44
  %70 = load ptr, ptr %9, align 8, !tbaa !17
  %71 = load ptr, ptr %8, align 8, !tbaa !52
  %72 = getelementptr inbounds nuw %struct.wmap_compact_table_data, ptr %71, i32 0, i32 1
  store ptr %70, ptr %72, align 8, !tbaa !36
  store i32 2, ptr %4, align 4
  store i32 1, ptr %13, align 4
  call void @llvm.lifetime.end.p0(i64 8, ptr %11) #15
  br label %74

73:                                               ; preds = %26
  store i32 0, ptr %4, align 4
  store i32 1, ptr %13, align 4
  br label %74

74:                                               ; preds = %73, %69
  call void @llvm.lifetime.end.p0(i64 8, ptr %10) #15
  call void @llvm.lifetime.end.p0(i64 8, ptr %9) #15
  call void @llvm.lifetime.end.p0(i64 8, ptr %8) #15
  %75 = load i32, ptr %4, align 4
  ret i32 %75
}