; Function Attrs: nounwind sspstrong uwtable
define internal range(i32 0, 3) i32 @wmap_compact_table_i(i64 noundef %0, i64 %1, i64 noundef %2) #0 {
  %4 = inttoptr i64 %2 to ptr
  %5 = getelementptr inbounds nuw i8, ptr %4, i64 8
  %6 = load ptr, ptr %5, align 8, !tbaa !37
  %.not = icmp eq ptr %6, null
  br i1 %.not, label %8, label %7

7:                                                ; preds = %3
  tail call void @ruby_xfree(ptr noundef nonnull %6) #10
  store ptr null, ptr %5, align 8, !tbaa !37
  br label %8

8:                                                ; preds = %7, %3
  %9 = inttoptr i64 %0 to ptr
  %10 = getelementptr inbounds nuw i8, ptr %9, i64 8
  %11 = load i64, ptr %10, align 8, !tbaa !40
  %12 = tail call i64 @rb_gc_location(i64 noundef %11) #10
  store i64 %12, ptr %10, align 8, !tbaa !40
  %13 = load i64, ptr %9, align 8, !tbaa !38
  %14 = tail call i64 @rb_gc_location(i64 noundef %13) #10
  %15 = load i64, ptr %9, align 8, !tbaa !38
  %.not22 = icmp eq i64 %15, %14
  br i1 %.not22, label %29, label %16

16:                                               ; preds = %8
  %17 = tail call i64 @rb_gc_disable_no_rest() #10
  %18 = tail call noalias nonnull dereferenceable(16) ptr @ruby_xmalloc(i64 noundef 16) #13
  store i64 %14, ptr %18, align 8, !tbaa !38
  %19 = load i64, ptr %10, align 8, !tbaa !40
  %20 = getelementptr inbounds nuw i8, ptr %18, i64 8
  store i64 %19, ptr %20, align 8, !tbaa !40
  %21 = load ptr, ptr %4, align 8, !tbaa !35
  %22 = ptrtoint ptr %18 to i64
  %23 = ptrtoint ptr %20 to i64
  %24 = tail call i32 @rb_st_insert(ptr noundef %21, i64 noundef %22, i64 noundef %23) #10
  %25 = icmp eq i64 %17, 0
  br i1 %25, label %26, label %28

26:                                               ; preds = %16
  %27 = tail call i64 @rb_gc_enable() #10
  br label %28

28:                                               ; preds = %26, %16
  store ptr %9, ptr %5, align 8, !tbaa !37
  br label %29

29:                                               ; preds = %8, %28
  %.0 = phi i32 [ 2, %28 ], [ 0, %8 ]
  ret i32 %.0
}